; Function Attrs: mustprogress nounwind uwtable
define hidden noundef zeroext i1 @_ZNK19OpenColorIO_v2_4dev27GradingPrimaryTransformImpl6equalsERKNS_23GradingPrimaryTransformE(ptr noundef nonnull align 8 dereferenceable(200) %this, ptr noundef nonnull align 8 dereferenceable(8) %other) unnamed_addr #3 align 2 personality ptr @__gxx_personality_v0 {
entry:
  %cmp = icmp eq ptr %this, %other
  br i1 %cmp, label %return, label %if.end

if.end:                                           ; preds = %entry
  %m_data.i = getelementptr inbounds i8, ptr %this, i64 8
  %0 = tail call ptr @__dynamic_cast(ptr nonnull %other, ptr nonnull @_ZTIN19OpenColorIO_v2_4dev23GradingPrimaryTransformE, ptr nonnull @_ZTIN19OpenColorIO_v2_4dev27GradingPrimaryTransformImplE, i64 0) #13
  %m_data.i2 = getelementptr inbounds i8, ptr %0, i64 8
  %call3 = invoke noundef zeroext i1 @_ZN19OpenColorIO_v2_4deveqERKNS_20GradingPrimaryOpDataES2_(ptr noundef nonnull align 8 dereferenceable(192) %m_data.i, ptr noundef nonnull align 8 dereferenceable(192) %m_data.i2)
          to label %return unwind label %terminate.lpad

return:                                           ; preds = %if.end, %entry
  %retval.0 = phi i1 [ true, %entry ], [ %call3, %if.end ]
  ret i1 %retval.0

terminate.lpad:                                   ; preds = %if.end
  %1 = landingpad { ptr, i32 }
          catch ptr null
  %2 = extractvalue { ptr, i32 } %1, 0
  tail call void @__clang_call_terminate(ptr %2) #15
  unreachable
}